target datalayout = "e-m:e-p270:32:32-p271:32:32-p272:64:64-i64:64-i128:128-f80:128-n8:16:32:64-S128"
target triple = "x86_64-pc-linux-gnu"

@.str = private unnamed_addr constant [35 x i8] c"../openssl/apps/lib/cmp_mock_srv.c\00", align 1
@__func__.process_error = private unnamed_addr constant [14 x i8] c"process_error\00", align 1
@bio_err = external global ptr, align 8
@.str.3 = private unnamed_addr constant [29 x i8] c"mock server received error:\0A\00", align 1
@.str.4 = private unnamed_addr constant [22 x i8] c"pkiStatusInfo absent\0A\00", align 1
@.str.5 = private unnamed_addr constant [19 x i8] c"pkiStatusInfo: %s\0A\00", align 1
@.str.6 = private unnamed_addr constant [10 x i8] c"<invalid>\00", align 1
@.str.7 = private unnamed_addr constant [18 x i8] c"errorCode absent\0A\00", align 1
@.str.8 = private unnamed_addr constant [16 x i8] c"errorCode: %ld\0A\00", align 1
@.str.9 = private unnamed_addr constant [21 x i8] c"errorDetails absent\0A\00", align 1
@.str.10 = private unnamed_addr constant [15 x i8] c"errorDetails: \00", align 1
@.str.11 = private unnamed_addr constant [3 x i8] c", \00", align 1
@.str.12 = private unnamed_addr constant [2 x i8] c"\0A\00", align 1

; Function Attrs: inlinehint nounwind uwtable
define internal ptr @ossl_check_const_ASN1_UTF8STRING_sk_type(ptr noundef %0) #3 {
  %2 = alloca ptr, align 8
  store ptr %0, ptr %2, align 8, !tbaa !58
  %3 = load ptr, ptr %2, align 8, !tbaa !58
  ret ptr %3
}

; Function Attrs: nounwind uwtable
define internal void @process_error(ptr noundef %0, ptr noundef %1, ptr noundef %2, ptr noundef %3, ptr noundef %4) #0 {
  %6 = alloca ptr, align 8
  %7 = alloca ptr, align 8
  %8 = alloca ptr, align 8
  %9 = alloca ptr, align 8
  %10 = alloca ptr, align 8
  %11 = alloca ptr, align 8
  %12 = alloca [1024 x i8], align 16
  %13 = alloca ptr, align 8
  %14 = alloca i32, align 4
  %15 = alloca i32, align 4
  store ptr %0, ptr %6, align 8, !tbaa !4
  store ptr %1, ptr %7, align 8, !tbaa !41
  store ptr %2, ptr %8, align 8, !tbaa !34
  store ptr %3, ptr %9, align 8, !tbaa !60
  store ptr %4, ptr %10, align 8, !tbaa !58
  call void @llvm.lifetime.start.p0(i64 8, ptr %11) #5
  %16 = load ptr, ptr %6, align 8, !tbaa !4
  %17 = call ptr @OSSL_CMP_SRV_CTX_get0_custom_ctx(ptr noundef %16)
  store ptr %17, ptr %11, align 8, !tbaa !11
  call void @llvm.lifetime.start.p0(i64 1024, ptr %12) #5
  call void @llvm.lifetime.start.p0(i64 8, ptr %13) #5
  call void @llvm.lifetime.start.p0(i64 4, ptr %14) #5
  %18 = load ptr, ptr %11, align 8, !tbaa !11
  %19 = icmp eq ptr %18, null
  br i1 %19, label %23, label %20

20:                                               ; preds = %5
  %21 = load ptr, ptr %7, align 8, !tbaa !41
  %22 = icmp eq ptr %21, null
  br i1 %22, label %23, label %24

23:                                               ; preds = %20, %5
  call void @ERR_new()
  call void @ERR_set_debug(ptr noundef @.str, i32 noundef 620, ptr noundef @__func__.process_error)
  call void (i32, i32, ptr, ...) @ERR_set_error(i32 noundef 58, i32 noundef 103, ptr noundef null)
  store i32 1, ptr %15, align 4
  br label %93

24:                                               ; preds = %20
  %25 = load ptr, ptr @bio_err, align 8, !tbaa !70
  %26 = call i32 (ptr, ptr, ...) @BIO_printf(ptr noundef %25, ptr noundef @.str.3)
  %27 = load ptr, ptr %8, align 8, !tbaa !34
  %28 = icmp eq ptr %27, null
  br i1 %28, label %29, label %32

29:                                               ; preds = %24
  %30 = load ptr, ptr @bio_err, align 8, !tbaa !70
  %31 = call i32 (ptr, ptr, ...) @BIO_printf(ptr noundef %30, ptr noundef @.str.4)
  br label %45

32:                                               ; preds = %24
  %33 = load ptr, ptr %8, align 8, !tbaa !34
  %34 = getelementptr inbounds [1024 x i8], ptr %12, i64 0, i64 0
  %35 = call ptr @OSSL_CMP_snprint_PKIStatusInfo(ptr noundef %33, ptr noundef %34, i64 noundef 1024)
  store ptr %35, ptr %13, align 8, !tbaa !32
  %36 = load ptr, ptr @bio_err, align 8, !tbaa !70
  %37 = load ptr, ptr %13, align 8, !tbaa !32
  %38 = icmp ne ptr %37, null
  br i1 %38, label %39, label %41

39:                                               ; preds = %32
  %40 = load ptr, ptr %13, align 8, !tbaa !32
  br label %42

41:                                               ; preds = %32
  br label %42

42:                                               ; preds = %41, %39
  %43 = phi ptr [ %40, %39 ], [ @.str.6, %41 ]
  %44 = call i32 (ptr, ptr, ...) @BIO_printf(ptr noundef %36, ptr noundef @.str.5, ptr noundef %43)
  br label %45

45:                                               ; preds = %42, %29
  %46 = load ptr, ptr %9, align 8, !tbaa !60
  %47 = icmp eq ptr %46, null
  br i1 %47, label %48, label %51

48:                                               ; preds = %45
  %49 = load ptr, ptr @bio_err, align 8, !tbaa !70
  %50 = call i32 (ptr, ptr, ...) @BIO_printf(ptr noundef %49, ptr noundef @.str.7)
  br label %56

51:                                               ; preds = %45
  %52 = load ptr, ptr @bio_err, align 8, !tbaa !70
  %53 = load ptr, ptr %9, align 8, !tbaa !60
  %54 = call i64 @ASN1_INTEGER_get(ptr noundef %53)
  %55 = call i32 (ptr, ptr, ...) @BIO_printf(ptr noundef %52, ptr noundef @.str.8, i64 noundef %54)
  br label %56

56:                                               ; preds = %51, %48
  %57 = load ptr, ptr %10, align 8, !tbaa !58
  %58 = call ptr @ossl_check_const_ASN1_UTF8STRING_sk_type(ptr noundef %57)
  %59 = call i32 @OPENSSL_sk_num(ptr noundef %58)
  %60 = icmp sle i32 %59, 0
  br i1 %60, label %61, label %64

61:                                               ; preds = %56
  %62 = load ptr, ptr @bio_err, align 8, !tbaa !70
  %63 = call i32 (ptr, ptr, ...) @BIO_printf(ptr noundef %62, ptr noundef @.str.9)
  br label %92

64:                                               ; preds = %56
  %65 = load ptr, ptr @bio_err, align 8, !tbaa !70
  %66 = call i32 (ptr, ptr, ...) @BIO_printf(ptr noundef %65, ptr noundef @.str.10)
  store i32 0, ptr %14, align 4, !tbaa !31
  br label %67

67:                                               ; preds = %86, %64
  %68 = load i32, ptr %14, align 4, !tbaa !31
  %69 = load ptr, ptr %10, align 8, !tbaa !58
  %70 = call ptr @ossl_check_const_ASN1_UTF8STRING_sk_type(ptr noundef %69)
  %71 = call i32 @OPENSSL_sk_num(ptr noundef %70)
  %72 = icmp slt i32 %68, %71
  br i1 %72, label %73, label %89

73:                                               ; preds = %67
  %74 = load i32, ptr %14, align 4, !tbaa !31
  %75 = icmp sgt i32 %74, 0
  br i1 %75, label %76, label %79

76:                                               ; preds = %73
  %77 = load ptr, ptr @bio_err, align 8, !tbaa !70
  %78 = call i32 (ptr, ptr, ...) @BIO_printf(ptr noundef %77, ptr noundef @.str.11)
  br label %79

79:                                               ; preds = %76, %73
  %80 = load ptr, ptr @bio_err, align 8, !tbaa !70
  %81 = load ptr, ptr %10, align 8, !tbaa !58
  %82 = call ptr @ossl_check_const_ASN1_UTF8STRING_sk_type(ptr noundef %81)
  %83 = load i32, ptr %14, align 4, !tbaa !31
  %84 = call ptr @OPENSSL_sk_value(ptr noundef %82, i32 noundef %83)
  %85 = call i32 @ASN1_STRING_print_ex(ptr noundef %80, ptr noundef %84, i64 noundef 8)
  br label %86

86:                                               ; preds = %79
  %87 = load i32, ptr %14, align 4, !tbaa !31
  %88 = add nsw i32 %87, 1
  store i32 %88, ptr %14, align 4, !tbaa !31
  br label %67, !llvm.loop !72

89:                                               ; preds = %67
  %90 = load ptr, ptr @bio_err, align 8, !tbaa !70
  %91 = call i32 (ptr, ptr, ...) @BIO_printf(ptr noundef %90, ptr noundef @.str.12)
  br label %92

92:                                               ; preds = %89, %61
  store i32 0, ptr %15, align 4
  br label %93

93:                                               ; preds = %92, %23
  call void @llvm.lifetime.end.p0(i64 4, ptr %14) #5
  call void @llvm.lifetime.end.p0(i64 8, ptr %13) #5
  call void @llvm.lifetime.end.p0(i64 1024, ptr %12) #5
  call void @llvm.lifetime.end.p0(i64 8, ptr %11) #5
  %94 = load i32, ptr %15, align 4
  switch i32 %94, label %96 [
    i32 0, label %95
    i32 1, label %95
  ]

95:                                               ; preds = %93, %93
  ret void

96:                                               ; preds = %93
  unreachable
}