; Function Attrs: nounwind uwtable
define internal void @process_error(ptr noundef %0, ptr noundef readnone captures(address_is_null) %1, ptr noundef %2, ptr noundef %3, ptr noundef %4) #0 {
  %6 = alloca [1024 x i8], align 16
  %7 = tail call ptr @OSSL_CMP_SRV_CTX_get0_custom_ctx(ptr noundef %0) #4
  call void @llvm.lifetime.start.p0(i64 1024, ptr nonnull %6) #4
  %8 = icmp eq ptr %7, null
  %9 = icmp eq ptr %1, null
  %or.cond = or i1 %9, %8
  br i1 %or.cond, label %10, label %11

10:                                               ; preds = %5
  tail call void @ERR_new() #4
  tail call void @ERR_set_debug(ptr noundef nonnull @.str, i32 noundef 620, ptr noundef nonnull @__func__.process_error) #4
  tail call void (i32, i32, ptr, ...) @ERR_set_error(i32 noundef 58, i32 noundef 103, ptr noundef null) #4
  br label %53

11:                                               ; preds = %5
  %12 = load ptr, ptr @bio_err, align 8, !tbaa !38
  %13 = tail call i32 (ptr, ptr, ...) @BIO_printf(ptr noundef %12, ptr noundef nonnull @.str.3) #4
  %14 = icmp eq ptr %2, null
  br i1 %14, label %15, label %18

15:                                               ; preds = %11
  %16 = load ptr, ptr @bio_err, align 8, !tbaa !38
  %17 = tail call i32 (ptr, ptr, ...) @BIO_printf(ptr noundef %16, ptr noundef nonnull @.str.4) #4
  br label %23

18:                                               ; preds = %11
  %19 = call ptr @OSSL_CMP_snprint_PKIStatusInfo(ptr noundef nonnull %2, ptr noundef nonnull %6, i64 noundef 1024) #4
  %20 = load ptr, ptr @bio_err, align 8, !tbaa !38
  %.not = icmp eq ptr %19, null
  %21 = select i1 %.not, ptr @.str.6, ptr %19
  %22 = call i32 (ptr, ptr, ...) @BIO_printf(ptr noundef %20, ptr noundef nonnull @.str.5, ptr noundef nonnull %21) #4
  br label %23

23:                                               ; preds = %18, %15
  %24 = icmp eq ptr %3, null
  %25 = load ptr, ptr @bio_err, align 8, !tbaa !38
  br i1 %24, label %26, label %28

26:                                               ; preds = %23
  %27 = call i32 (ptr, ptr, ...) @BIO_printf(ptr noundef %25, ptr noundef nonnull @.str.7) #4
  br label %31

28:                                               ; preds = %23
  %29 = call i64 @ASN1_INTEGER_get(ptr noundef nonnull %3) #4
  %30 = call i32 (ptr, ptr, ...) @BIO_printf(ptr noundef %25, ptr noundef nonnull @.str.8, i64 noundef %29) #4
  br label %31

31:                                               ; preds = %28, %26
  %32 = call i32 @OPENSSL_sk_num(ptr noundef %4) #4
  %33 = icmp slt i32 %32, 1
  %34 = load ptr, ptr @bio_err, align 8, !tbaa !38
  br i1 %33, label %35, label %37

35:                                               ; preds = %31
  %36 = call i32 (ptr, ptr, ...) @BIO_printf(ptr noundef %34, ptr noundef nonnull @.str.9) #4
  br label %53

37:                                               ; preds = %31
  %38 = call i32 (ptr, ptr, ...) @BIO_printf(ptr noundef %34, ptr noundef nonnull @.str.10) #4
  %39 = call i32 @OPENSSL_sk_num(ptr noundef %4) #4
  %40 = icmp sgt i32 %39, 0
  br i1 %40, label %.lr.ph, label %._crit_edge

.lr.ph:                                           ; preds = %37, %44
  %.019 = phi i32 [ %48, %44 ], [ 0, %37 ]
  %.not18 = icmp eq i32 %.019, 0
  br i1 %.not18, label %44, label %41

41:                                               ; preds = %.lr.ph
  %42 = load ptr, ptr @bio_err, align 8, !tbaa !38
  %43 = call i32 (ptr, ptr, ...) @BIO_printf(ptr noundef %42, ptr noundef nonnull @.str.11) #4
  br label %44

44:                                               ; preds = %41, %.lr.ph
  %45 = load ptr, ptr @bio_err, align 8, !tbaa !38
  %46 = call ptr @OPENSSL_sk_value(ptr noundef %4, i32 noundef %.019) #4
  %47 = call i32 @ASN1_STRING_print_ex(ptr noundef %45, ptr noundef %46, i64 noundef 8) #4
  %48 = add nuw nsw i32 %.019, 1
  %49 = call i32 @OPENSSL_sk_num(ptr noundef %4) #4
  %50 = icmp slt i32 %48, %49
  br i1 %50, label %.lr.ph, label %._crit_edge, !llvm.loop !40

._crit_edge:                                      ; preds = %44, %37
  %51 = load ptr, ptr @bio_err, align 8, !tbaa !38
  %52 = call i32 (ptr, ptr, ...) @BIO_printf(ptr noundef %51, ptr noundef nonnull @.str.12) #4
  br label %53

53:                                               ; preds = %35, %._crit_edge, %10
  call void @llvm.lifetime.end.p0(i64 1024, ptr nonnull %6) #4
  ret void
}